target datalayout = "e-m:e-p270:32:32-p271:32:32-p272:64:64-i64:64-i128:128-f80:128-n8:16:32:64-S128"
target triple = "x86_64-pc-linux-gnu"

%struct.Abc_Frame_t_ = type { ptr, ptr, ptr, ptr, ptr, ptr, ptr, ptr, ptr, ptr, i32, i32, i32, i32, i32, ptr, float, float, i32, i32, ptr, ptr, ptr, double, double, ptr, ptr, ptr, ptr, ptr, ptr, ptr, ptr, ptr, ptr, ptr, ptr, float, ptr, i32, ptr, ptr, ptr, ptr, ptr, i32, i32, i32, i32, i32, i32, ptr, ptr, ptr, ptr, ptr, ptr, i32, i32, ptr, ptr, ptr, ptr, ptr, ptr, ptr, ptr, ptr, ptr, ptr, ptr, ptr, ptr, ptr, ptr, ptr, ptr, ptr, ptr, ptr, ptr, ptr, ptr, ptr, ptr, ptr, ptr, ptr, ptr }

@globalUtilOptind = external global i32, align 4
@.str.41 = private unnamed_addr constant [4 x i8] c"yes\00", align 1
@.str.42 = private unnamed_addr constant [3 x i8] c"no\00", align 1
@.str.45 = private unnamed_addr constant [62 x i8] c"\09-v     : toggle printing verbose information [default = %s]\0A\00", align 1
@.str.46 = private unnamed_addr constant [35 x i8] c"\09-h     : print the command usage\0A\00", align 1
@.str.88 = private unnamed_addr constant [60 x i8] c"Command line switch \22-I\22 should be followed by an integer.\0A\00", align 1
@.str.120 = private unnamed_addr constant [54 x i8] c"\09         memory abstraction for word-level networks\0A\00", align 1
@.str.122 = private unnamed_addr constant [4 x i8] c"Fvh\00", align 1
@.str.123 = private unnamed_addr constant [51 x i8] c"Abc_CommandMemAbs2(): There is no current design.\0A\00", align 1
@.str.124 = private unnamed_addr constant [33 x i8] c"usage: %%memabs2 [-F num] [-vh]\0A\00", align 1
@.str.125 = private unnamed_addr constant [51 x i8] c"\09-F num : the number of timeframes [default = %d]\0A\00", align 1

; Function Attrs: inlinehint nounwind uwtable
define internal void @Wlc_AbcFreeNtk(ptr noundef %0) #2 {
  %2 = alloca ptr, align 8
  store ptr %0, ptr %2, align 8, !tbaa !3
  %3 = load ptr, ptr %2, align 8, !tbaa !3
  %4 = getelementptr inbounds nuw %struct.Abc_Frame_t_, ptr %3, i32 0, i32 71
  %5 = load ptr, ptr %4, align 8, !tbaa !132
  %6 = icmp ne ptr %5, null
  br i1 %6, label %7, label %10

7:                                                ; preds = %1
  %8 = load ptr, ptr %2, align 8, !tbaa !3
  %9 = call ptr @Wlc_AbcGetNtk(ptr noundef %8)
  call void @Wlc_NtkFree(ptr noundef %9)
  br label %10

10:                                               ; preds = %7, %1
  ret void
}

; Function Attrs: inlinehint nounwind uwtable
define internal void @Wlc_AbcUpdateNtk(ptr noundef %0, ptr noundef %1) #2 {
  %3 = alloca ptr, align 8
  %4 = alloca ptr, align 8
  store ptr %0, ptr %3, align 8, !tbaa !3
  store ptr %1, ptr %4, align 8, !tbaa !12
  %5 = load ptr, ptr %3, align 8, !tbaa !3
  call void @Wlc_AbcFreeNtk(ptr noundef %5)
  %6 = load ptr, ptr %4, align 8, !tbaa !12
  %7 = load ptr, ptr %3, align 8, !tbaa !3
  %8 = getelementptr inbounds nuw %struct.Abc_Frame_t_, ptr %7, i32 0, i32 71
  store ptr %6, ptr %8, align 8, !tbaa !132
  ret void
}

; Function Attrs: inlinehint nounwind willreturn memory(read) uwtable
define available_externally i32 @atoi(ptr noundef nonnull %0) #8 {
  %2 = alloca ptr, align 8
  store ptr %0, ptr %2, align 8, !tbaa !14
  %3 = load ptr, ptr %2, align 8, !tbaa !14
  %4 = call i64 @strtol(ptr noundef %3, ptr noundef null, i32 noundef 10) #12
  %5 = trunc i64 %4 to i32
  ret i32 %5
}

; Function Attrs: inlinehint nounwind uwtable
define internal ptr @Wlc_AbcGetNtk(ptr noundef %0) #2 {
  %2 = alloca ptr, align 8
  store ptr %0, ptr %2, align 8, !tbaa !3
  %3 = load ptr, ptr %2, align 8, !tbaa !3
  %4 = getelementptr inbounds nuw %struct.Abc_Frame_t_, ptr %3, i32 0, i32 71
  %5 = load ptr, ptr %4, align 8, !tbaa !132
  ret ptr %5
}

; Function Attrs: nounwind uwtable
define internal i32 @Abc_CommandMemAbs2(ptr noundef %0, i32 noundef %1, ptr noundef %2) #0 {
  %4 = alloca i32, align 4
  %5 = alloca ptr, align 8
  %6 = alloca i32, align 4
  %7 = alloca ptr, align 8
  %8 = alloca ptr, align 8
  %9 = alloca i32, align 4
  %10 = alloca i32, align 4
  %11 = alloca i32, align 4
  %12 = alloca i32, align 4
  store ptr %0, ptr %5, align 8, !tbaa !3
  store i32 %1, ptr %6, align 4, !tbaa !8
  store ptr %2, ptr %7, align 8, !tbaa !10
  call void @llvm.lifetime.start.p0(i64 8, ptr %8) #12
  %13 = load ptr, ptr %5, align 8, !tbaa !3
  %14 = call ptr @Wlc_AbcGetNtk(ptr noundef %13)
  store ptr %14, ptr %8, align 8, !tbaa !12
  call void @llvm.lifetime.start.p0(i64 4, ptr %9) #12
  call void @llvm.lifetime.start.p0(i64 4, ptr %10) #12
  store i32 0, ptr %10, align 4, !tbaa !8
  call void @llvm.lifetime.start.p0(i64 4, ptr %11) #12
  store i32 0, ptr %11, align 4, !tbaa !8
  call void (...) @Extra_UtilGetoptReset()
  br label %15

15:                                               ; preds = %45, %3
  %16 = load i32, ptr %6, align 4, !tbaa !8
  %17 = load ptr, ptr %7, align 8, !tbaa !10
  %18 = call i32 @Extra_UtilGetopt(i32 noundef %16, ptr noundef %17, ptr noundef @.str.122)
  store i32 %18, ptr %9, align 4, !tbaa !8
  %19 = icmp ne i32 %18, -1
  br i1 %19, label %20, label %46

20:                                               ; preds = %15
  %21 = load i32, ptr %9, align 4, !tbaa !8
  switch i32 %21, label %44 [
    i32 70, label %22
    i32 118, label %40
    i32 104, label %43
  ]

22:                                               ; preds = %20
  %23 = load i32, ptr @globalUtilOptind, align 4, !tbaa !8
  %24 = load i32, ptr %6, align 4, !tbaa !8
  %25 = icmp sge i32 %23, %24
  br i1 %25, label %26, label %27

26:                                               ; preds = %22
  call void (i32, ptr, ...) @Abc_Print(i32 noundef -1, ptr noundef @.str.88)
  br label %57

27:                                               ; preds = %22
  %28 = load ptr, ptr %7, align 8, !tbaa !10
  %29 = load i32, ptr @globalUtilOptind, align 4, !tbaa !8
  %30 = sext i32 %29 to i64
  %31 = getelementptr inbounds ptr, ptr %28, i64 %30
  %32 = load ptr, ptr %31, align 8, !tbaa !14
  %33 = call i32 @atoi(ptr noundef %32) #13
  store i32 %33, ptr %10, align 4, !tbaa !8
  %34 = load i32, ptr @globalUtilOptind, align 4, !tbaa !8
  %35 = add nsw i32 %34, 1
  store i32 %35, ptr @globalUtilOptind, align 4, !tbaa !8
  %36 = load i32, ptr %10, align 4, !tbaa !8
  %37 = icmp sle i32 %36, 0
  br i1 %37, label %38, label %39

38:                                               ; preds = %27
  br label %57

39:                                               ; preds = %27
  br label %45

40:                                               ; preds = %20
  %41 = load i32, ptr %11, align 4, !tbaa !8
  %42 = xor i32 %41, 1
  store i32 %42, ptr %11, align 4, !tbaa !8
  br label %45

43:                                               ; preds = %20
  br label %57

44:                                               ; preds = %20
  br label %57

45:                                               ; preds = %40, %39
  br label %15, !llvm.loop !72

46:                                               ; preds = %15
  %47 = load ptr, ptr %8, align 8, !tbaa !12
  %48 = icmp eq ptr %47, null
  br i1 %48, label %49, label %50

49:                                               ; preds = %46
  call void (i32, ptr, ...) @Abc_Print(i32 noundef 1, ptr noundef @.str.123)
  store i32 0, ptr %4, align 4
  store i32 1, ptr %12, align 4
  br label %62

50:                                               ; preds = %46
  %51 = load ptr, ptr %8, align 8, !tbaa !12
  %52 = load i32, ptr %10, align 4, !tbaa !8
  %53 = load i32, ptr %11, align 4, !tbaa !8
  %54 = call ptr @Wlc_NtkAbstractMem(ptr noundef %51, i32 noundef %52, i32 noundef %53)
  store ptr %54, ptr %8, align 8, !tbaa !12
  %55 = load ptr, ptr %5, align 8, !tbaa !3
  %56 = load ptr, ptr %8, align 8, !tbaa !12
  call void @Wlc_AbcUpdateNtk(ptr noundef %55, ptr noundef %56)
  store i32 0, ptr %4, align 4
  store i32 1, ptr %12, align 4
  br label %62

57:                                               ; preds = %44, %43, %38, %26
  call void (i32, ptr, ...) @Abc_Print(i32 noundef -2, ptr noundef @.str.124)
  call void (i32, ptr, ...) @Abc_Print(i32 noundef -2, ptr noundef @.str.120)
  %58 = load i32, ptr %10, align 4, !tbaa !8
  call void (i32, ptr, ...) @Abc_Print(i32 noundef -2, ptr noundef @.str.125, i32 noundef %58)
  %59 = load i32, ptr %11, align 4, !tbaa !8
  %60 = icmp ne i32 %59, 0
  %61 = select i1 %60, ptr @.str.41, ptr @.str.42
  call void (i32, ptr, ...) @Abc_Print(i32 noundef -2, ptr noundef @.str.45, ptr noundef %61)
  call void (i32, ptr, ...) @Abc_Print(i32 noundef -2, ptr noundef @.str.46)
  store i32 1, ptr %4, align 4
  store i32 1, ptr %12, align 4
  br label %62

62:                                               ; preds = %57, %50, %49
  call void @llvm.lifetime.end.p0(i64 4, ptr %11) #12
  call void @llvm.lifetime.end.p0(i64 4, ptr %10) #12
  call void @llvm.lifetime.end.p0(i64 4, ptr %9) #12
  call void @llvm.lifetime.end.p0(i64 8, ptr %8) #12
  %63 = load i32, ptr %4, align 4
  ret i32 %63
}