; Function Attrs: nounwind uwtable
define internal range(i32 0, 2) i32 @Abc_CommandMemAbs2(ptr noundef captures(none) %0, i32 noundef %1, ptr noundef %2) #0 {
  %4 = getelementptr i8, ptr %0, i64 504
  %.val = load ptr, ptr %4, align 8, !tbaa !27
  tail call void (...) @Extra_UtilGetoptReset() #17
  br label %.outer

.outer:                                           ; preds = %10, %3
  %.016.ph = phi i32 [ %15, %10 ], [ 0, %3 ]
  %.0.ph = phi i32 [ %.0, %10 ], [ 0, %3 ]
  br label %5

5:                                                ; preds = %.outer, %18
  %.0 = phi i32 [ %19, %18 ], [ %.0.ph, %.outer ]
  %6 = tail call i32 @Extra_UtilGetopt(i32 noundef %1, ptr noundef %2, ptr noundef nonnull @.str.122) #17
  switch i32 %6, label %.loopexit [
    i32 -1, label %20
    i32 70, label %7
    i32 118, label %18
  ]

7:                                                ; preds = %5
  %8 = load i32, ptr @globalUtilOptind, align 4, !tbaa !5
  %.not24 = icmp slt i32 %8, %1
  br i1 %.not24, label %10, label %9

9:                                                ; preds = %7
  tail call void (i32, ptr, ...) @Abc_Print(i32 noundef -1, ptr noundef nonnull @.str.88)
  br label %.loopexit

10:                                               ; preds = %7
  %11 = sext i32 %8 to i64
  %12 = getelementptr inbounds ptr, ptr %2, i64 %11
  %13 = load ptr, ptr %12, align 8, !tbaa !9
  %14 = tail call i64 @strtol(ptr noundef nonnull captures(none) %13, ptr noundef null, i32 noundef 10) #17
  %15 = trunc i64 %14 to i32
  %16 = add nsw i32 %8, 1
  store i32 %16, ptr @globalUtilOptind, align 4, !tbaa !5
  %17 = icmp slt i32 %15, 1
  br i1 %17, label %.loopexit, label %.outer, !llvm.loop !65

18:                                               ; preds = %5
  %19 = xor i32 %.0, 1
  br label %5, !llvm.loop !65

20:                                               ; preds = %5
  %21 = icmp eq ptr %.val, null
  br i1 %21, label %22, label %23

22:                                               ; preds = %20
  tail call void (i32, ptr, ...) @Abc_Print(i32 noundef 1, ptr noundef nonnull @.str.123)
  br label %27

23:                                               ; preds = %20
  %24 = tail call ptr @Wlc_NtkAbstractMem(ptr noundef nonnull %.val, i32 noundef %.016.ph, i32 noundef %.0) #17
  %.val.i = load ptr, ptr %4, align 8, !tbaa !27
  %.not.i.i = icmp eq ptr %.val.i, null
  br i1 %.not.i.i, label %Wlc_AbcUpdateNtk.exit, label %25

25:                                               ; preds = %23
  tail call void @Wlc_NtkFree(ptr noundef nonnull %.val.i) #17
  br label %Wlc_AbcUpdateNtk.exit

Wlc_AbcUpdateNtk.exit:                            ; preds = %23, %25
  store ptr %24, ptr %4, align 8, !tbaa !27
  br label %27

.loopexit:                                        ; preds = %5, %10, %9
  %.117 = phi i32 [ %.016.ph, %9 ], [ %.016.ph, %5 ], [ %15, %10 ]
  tail call void (i32, ptr, ...) @Abc_Print(i32 noundef -2, ptr noundef nonnull @.str.124)
  tail call void (i32, ptr, ...) @Abc_Print(i32 noundef -2, ptr noundef nonnull @.str.120)
  tail call void (i32, ptr, ...) @Abc_Print(i32 noundef -2, ptr noundef nonnull @.str.125, i32 noundef %.117)
  %.not25 = icmp eq i32 %.0, 0
  %26 = select i1 %.not25, ptr @.str.42, ptr @.str.41
  tail call void (i32, ptr, ...) @Abc_Print(i32 noundef -2, ptr noundef nonnull @.str.45, ptr noundef nonnull %26)
  tail call void (i32, ptr, ...) @Abc_Print(i32 noundef -2, ptr noundef nonnull @.str.46)
  br label %27

27:                                               ; preds = %.loopexit, %Wlc_AbcUpdateNtk.exit, %22
  %.018 = phi i32 [ 1, %.loopexit ], [ 0, %22 ], [ 0, %Wlc_AbcUpdateNtk.exit ]
  ret i32 %.018
}